target datalayout = "e-m:e-p270:32:32-p271:32:32-p272:64:64-i64:64-i128:128-f80:128-n8:16:32:64-S128"
target triple = "x86_64-pc-linux-gnu"

; Function Attrs: nounwind uwtable
define void @bn_mul_low_normal(ptr noundef %0, ptr noundef %1, ptr noundef %2, i32 noundef %3) #0 {
  %5 = alloca ptr, align 8
  %6 = alloca ptr, align 8
  %7 = alloca ptr, align 8
  %8 = alloca i32, align 4
  store ptr %0, ptr %5, align 8, !tbaa !3
  store ptr %1, ptr %6, align 8, !tbaa !3
  store ptr %2, ptr %7, align 8, !tbaa !3
  store i32 %3, ptr %8, align 4, !tbaa !8
  %9 = load ptr, ptr %5, align 8, !tbaa !3
  %10 = load ptr, ptr %6, align 8, !tbaa !3
  %11 = load i32, ptr %8, align 4, !tbaa !8
  %12 = load ptr, ptr %7, align 8, !tbaa !3
  %13 = getelementptr inbounds i64, ptr %12, i64 0
  %14 = load i64, ptr %13, align 8, !tbaa !10
  %15 = call i64 @bn_mul_words(ptr noundef %9, ptr noundef %10, i32 noundef %11, i64 noundef %14)
  br label %16

16:                                               ; preds = %60, %4
  %17 = load i32, ptr %8, align 4, !tbaa !8
  %18 = add nsw i32 %17, -1
  store i32 %18, ptr %8, align 4, !tbaa !8
  %19 = icmp sle i32 %18, 0
  br i1 %19, label %20, label %21

20:                                               ; preds = %16
  br label %73

21:                                               ; preds = %16
  %22 = load ptr, ptr %5, align 8, !tbaa !3
  %23 = getelementptr inbounds i64, ptr %22, i64 1
  %24 = load ptr, ptr %6, align 8, !tbaa !3
  %25 = load i32, ptr %8, align 4, !tbaa !8
  %26 = load ptr, ptr %7, align 8, !tbaa !3
  %27 = getelementptr inbounds i64, ptr %26, i64 1
  %28 = load i64, ptr %27, align 8, !tbaa !10
  %29 = call i64 @bn_mul_add_words(ptr noundef %23, ptr noundef %24, i32 noundef %25, i64 noundef %28)
  %30 = load i32, ptr %8, align 4, !tbaa !8
  %31 = add nsw i32 %30, -1
  store i32 %31, ptr %8, align 4, !tbaa !8
  %32 = icmp sle i32 %31, 0
  br i1 %32, label %33, label %34

33:                                               ; preds = %21
  br label %73

34:                                               ; preds = %21
  %35 = load ptr, ptr %5, align 8, !tbaa !3
  %36 = getelementptr inbounds i64, ptr %35, i64 2
  %37 = load ptr, ptr %6, align 8, !tbaa !3
  %38 = load i32, ptr %8, align 4, !tbaa !8
  %39 = load ptr, ptr %7, align 8, !tbaa !3
  %40 = getelementptr inbounds i64, ptr %39, i64 2
  %41 = load i64, ptr %40, align 8, !tbaa !10
  %42 = call i64 @bn_mul_add_words(ptr noundef %36, ptr noundef %37, i32 noundef %38, i64 noundef %41)
  %43 = load i32, ptr %8, align 4, !tbaa !8
  %44 = add nsw i32 %43, -1
  store i32 %44, ptr %8, align 4, !tbaa !8
  %45 = icmp sle i32 %44, 0
  br i1 %45, label %46, label %47

46:                                               ; preds = %34
  br label %73

47:                                               ; preds = %34
  %48 = load ptr, ptr %5, align 8, !tbaa !3
  %49 = getelementptr inbounds i64, ptr %48, i64 3
  %50 = load ptr, ptr %6, align 8, !tbaa !3
  %51 = load i32, ptr %8, align 4, !tbaa !8
  %52 = load ptr, ptr %7, align 8, !tbaa !3
  %53 = getelementptr inbounds i64, ptr %52, i64 3
  %54 = load i64, ptr %53, align 8, !tbaa !10
  %55 = call i64 @bn_mul_add_words(ptr noundef %49, ptr noundef %50, i32 noundef %51, i64 noundef %54)
  %56 = load i32, ptr %8, align 4, !tbaa !8
  %57 = add nsw i32 %56, -1
  store i32 %57, ptr %8, align 4, !tbaa !8
  %58 = icmp sle i32 %57, 0
  br i1 %58, label %59, label %60

59:                                               ; preds = %47
  br label %73

60:                                               ; preds = %47
  %61 = load ptr, ptr %5, align 8, !tbaa !3
  %62 = getelementptr inbounds i64, ptr %61, i64 4
  %63 = load ptr, ptr %6, align 8, !tbaa !3
  %64 = load i32, ptr %8, align 4, !tbaa !8
  %65 = load ptr, ptr %7, align 8, !tbaa !3
  %66 = getelementptr inbounds i64, ptr %65, i64 4
  %67 = load i64, ptr %66, align 8, !tbaa !10
  %68 = call i64 @bn_mul_add_words(ptr noundef %62, ptr noundef %63, i32 noundef %64, i64 noundef %67)
  %69 = load ptr, ptr %5, align 8, !tbaa !3
  %70 = getelementptr inbounds i64, ptr %69, i64 4
  store ptr %70, ptr %5, align 8, !tbaa !3
  %71 = load ptr, ptr %7, align 8, !tbaa !3
  %72 = getelementptr inbounds i64, ptr %71, i64 4
  store ptr %72, ptr %7, align 8, !tbaa !3
  br label %16

73:                                               ; preds = %59, %46, %33, %20
  ret void
}