; Function Attrs: nounwind uwtable
define void @bn_mul_low_normal(ptr noundef %0, ptr noundef %1, ptr noundef readonly captures(none) %2, i32 noundef %3) local_unnamed_addr #0 {
  %5 = load i64, ptr %2, align 8, !tbaa !3
  %6 = tail call i64 @bn_mul_words(ptr noundef %0, ptr noundef %1, i32 noundef %3, i64 noundef %5) #4
  %7 = icmp slt i32 %3, 2
  br i1 %7, label %._crit_edge, label %.lr.ph

.lr.ph:                                           ; preds = %4, %28
  %.033 = phi i32 [ %29, %28 ], [ %3, %4 ]
  %.02532 = phi ptr [ %31, %28 ], [ %2, %4 ]
  %.02631 = phi ptr [ %30, %28 ], [ %0, %4 ]
  %8 = add nsw i32 %.033, -1
  %9 = getelementptr inbounds nuw i8, ptr %.02631, i64 8
  %10 = getelementptr inbounds nuw i8, ptr %.02532, i64 8
  %11 = load i64, ptr %10, align 8, !tbaa !3
  %12 = tail call i64 @bn_mul_add_words(ptr noundef nonnull %9, ptr noundef %1, i32 noundef %8, i64 noundef %11) #4
  %13 = icmp eq i32 %.033, 2
  br i1 %13, label %._crit_edge, label %14

14:                                               ; preds = %.lr.ph
  %15 = add nsw i32 %.033, -2
  %16 = getelementptr inbounds nuw i8, ptr %.02631, i64 16
  %17 = getelementptr inbounds nuw i8, ptr %.02532, i64 16
  %18 = load i64, ptr %17, align 8, !tbaa !3
  %19 = tail call i64 @bn_mul_add_words(ptr noundef nonnull %16, ptr noundef %1, i32 noundef %15, i64 noundef %18) #4
  %20 = icmp samesign ult i32 %.033, 4
  br i1 %20, label %._crit_edge, label %21

21:                                               ; preds = %14
  %22 = add nsw i32 %.033, -3
  %23 = getelementptr inbounds nuw i8, ptr %.02631, i64 24
  %24 = getelementptr inbounds nuw i8, ptr %.02532, i64 24
  %25 = load i64, ptr %24, align 8, !tbaa !3
  %26 = tail call i64 @bn_mul_add_words(ptr noundef nonnull %23, ptr noundef %1, i32 noundef %22, i64 noundef %25) #4
  %27 = icmp eq i32 %.033, 4
  br i1 %27, label %._crit_edge, label %28

28:                                               ; preds = %21
  %29 = add nsw i32 %.033, -4
  %30 = getelementptr inbounds nuw i8, ptr %.02631, i64 32
  %31 = getelementptr inbounds nuw i8, ptr %.02532, i64 32
  %32 = load i64, ptr %31, align 8, !tbaa !3
  %33 = tail call i64 @bn_mul_add_words(ptr noundef nonnull %30, ptr noundef %1, i32 noundef %29, i64 noundef %32) #4
  %34 = icmp samesign ult i32 %.033, 6
  br i1 %34, label %._crit_edge, label %.lr.ph

._crit_edge:                                      ; preds = %28, %.lr.ph, %14, %21, %4
  ret void
}